; Function Attrs: mustprogress nofree nounwind willreturn memory(argmem: read) uwtable
define dso_local noundef range(i32 1, 3) i32 @_ZN4llvm3omp12getOrderKindENS_9StringRefE(ptr nocapture readonly %0, i64 %1) local_unnamed_addr #0 {
  %cond = icmp eq i64 %1, 10
  br i1 %cond, label %_ZN4llvmeqENS_9StringRefES0_.exit.i7, label %_ZN4llvm12StringSwitchINS_3omp9OrderKindES2_E4CaseENS_13StringLiteralES2_.exit10

_ZN4llvmeqENS_9StringRefES0_.exit.i7:             ; preds = %2
  %bcmp.i.i8 = tail call i32 @bcmp(ptr noundef nonnull dereferenceable(10) %0, ptr noundef nonnull dereferenceable(10) @.str.221, i64 10)
  %3 = icmp eq i32 %bcmp.i.i8, 0
  %4 = select i1 %3, i32 1, i32 2
  br label %_ZN4llvm12StringSwitchINS_3omp9OrderKindES2_E4CaseENS_13StringLiteralES2_.exit10

_ZN4llvm12StringSwitchINS_3omp9OrderKindES2_E4CaseENS_13StringLiteralES2_.exit10: ; preds = %2, %_ZN4llvmeqENS_9StringRefES0_.exit.i7
  %.sroa.9.1.shrunk = phi i32 [ %4, %_ZN4llvmeqENS_9StringRefES0_.exit.i7 ], [ 2, %2 ]
  ret i32 %.sroa.9.1.shrunk
}